target datalayout = "e-m:e-p270:32:32-p271:32:32-p272:64:64-i64:64-i128:128-f80:128-n8:16:32:64-S128"
target triple = "x86_64-pc-linux-gnu"

%union.pthread_mutex_t = type { %struct.__pthread_mutex_s }
%struct.__pthread_mutex_s = type { i32, i32, i32, i32, i32, i16, i16, %struct.__pthread_internal_list }
%struct.__pthread_internal_list = type { ptr, ptr }
%struct.slurmdb_cluster_rec = type { ptr, i16, i64, %struct.sockaddr_storage, ptr, i32, i16, ptr, i16, %struct.slurmdb_cluster_fed_t, i32, %union.pthread_mutex_t, ptr, ptr, ptr, i16, ptr, ptr }
%struct.sockaddr_storage = type { i16, [118 x i8], i64 }
%struct.slurmdb_cluster_fed_t = type { ptr, i32, ptr, ptr, ptr, i32, i8, i8 }
%struct.persist_conn_t = type { ptr, i32, i32, i8, ptr, ptr, ptr, i64, i16, i32, i16, i8, i32, i32, ptr, i16, ptr, i64, i32, ptr, %struct.slurm_trigger_callbacks_t, i16 }
%struct.slurm_trigger_callbacks_t = type { ptr, ptr, ptr, ptr, ptr }

@fed_mgr_cluster_rec = dso_local global ptr null, align 8

; Function Attrs: nounwind uwtable
define internal i32 @_list_find_not_synced_sib(ptr noundef %0, ptr noundef %1) #0 {
  %3 = alloca i32, align 4
  %4 = alloca ptr, align 8
  %5 = alloca ptr, align 8
  %6 = alloca ptr, align 8
  %7 = alloca i32, align 4
  store ptr %0, ptr %4, align 8
  store ptr %1, ptr %5, align 8
  call void @llvm.lifetime.start.p0(i64 8, ptr %6) #9
  %8 = load ptr, ptr %4, align 8
  store ptr %8, ptr %6, align 8
  %9 = load ptr, ptr %6, align 8
  %10 = load ptr, ptr @fed_mgr_cluster_rec, align 8
  %11 = icmp ne ptr %9, %10
  br i1 %11, label %12, label %33

12:                                               ; preds = %2
  %13 = load ptr, ptr %6, align 8
  %14 = getelementptr inbounds nuw %struct.slurmdb_cluster_rec, ptr %13, i32 0, i32 9
  %15 = getelementptr inbounds nuw %struct.slurmdb_cluster_fed_t, ptr %14, i32 0, i32 4
  %16 = load ptr, ptr %15, align 8
  %17 = icmp ne ptr %16, null
  br i1 %17, label %18, label %33

18:                                               ; preds = %12
  %19 = load ptr, ptr %6, align 8
  %20 = getelementptr inbounds nuw %struct.slurmdb_cluster_rec, ptr %19, i32 0, i32 9
  %21 = getelementptr inbounds nuw %struct.slurmdb_cluster_fed_t, ptr %20, i32 0, i32 4
  %22 = load ptr, ptr %21, align 8
  %23 = getelementptr inbounds nuw %struct.persist_conn_t, ptr %22, i32 0, i32 9
  %24 = load i32, ptr %23, align 4
  %25 = icmp sge i32 %24, 0
  br i1 %25, label %26, label %33

26:                                               ; preds = %18
  %27 = load ptr, ptr %6, align 8
  %28 = getelementptr inbounds nuw %struct.slurmdb_cluster_rec, ptr %27, i32 0, i32 9
  %29 = getelementptr inbounds nuw %struct.slurmdb_cluster_fed_t, ptr %28, i32 0, i32 6
  %30 = load i8, ptr %29, align 4, !range !11, !noundef !12
  %31 = trunc i8 %30 to i1
  br i1 %31, label %33, label %32

32:                                               ; preds = %26
  store i32 1, ptr %3, align 4
  store i32 1, ptr %7, align 4
  br label %34

33:                                               ; preds = %26, %18, %12, %2
  store i32 0, ptr %3, align 4
  store i32 1, ptr %7, align 4
  br label %34

34:                                               ; preds = %33, %32
  call void @llvm.lifetime.end.p0(i64 8, ptr %6) #9
  %35 = load i32, ptr %3, align 4
  ret i32 %35
}