; Function Attrs: mustprogress nofree norecurse nosync nounwind willreturn memory(read, inaccessiblemem: none) uwtable
define internal range(i32 0, 2) i32 @_list_find_not_synced_sib(ptr noundef readonly captures(address) %0, ptr readnone captures(none) %1) #9 {
  %3 = load ptr, ptr @fed_mgr_cluster_rec, align 8
  %.not = icmp eq ptr %0, %3
  br i1 %.not, label %15, label %4

4:                                                ; preds = %2
  %5 = getelementptr inbounds nuw i8, ptr %0, i64 216
  %6 = load ptr, ptr %5, align 8
  %.not7 = icmp eq ptr %6, null
  br i1 %.not7, label %15, label %7

7:                                                ; preds = %4
  %8 = getelementptr inbounds nuw i8, ptr %6, i64 60
  %9 = load i32, ptr %8, align 4
  %10 = icmp sgt i32 %9, -1
  br i1 %10, label %11, label %15

11:                                               ; preds = %7
  %12 = getelementptr inbounds nuw i8, ptr %0, i64 228
  %13 = load i8, ptr %12, align 4, !range !12, !noundef !13
  %14 = trunc nuw i8 %13 to i1
  br i1 %14, label %15, label %16

15:                                               ; preds = %11, %7, %4, %2
  br label %16

16:                                               ; preds = %11, %15
  %.0 = phi i32 [ 0, %15 ], [ 1, %11 ]
  ret i32 %.0
}